/home/efim/.platformio/packages/toolchain-xtensa-esp32s3/bin/xtensa-esp32s3-elf-objdump -D -s program.elf

program.elf:     file format elf32-xtensa-le

Contents of section .text:
 0000 0000f07f 00000000 00000000 00000000  ................
 0010 00000000 00000000 00000000 00002000  .............. .
 0020 00000080 ffffff7f 00001000 ffff0f00  ................
 0030 0000e03f 00000000 00000000 00000000  ...?............
 0040 00000000 3681007d 01294739 578847a6  ....6..}.)G9W.G.
 0050 18058227 05e61804 0c088615 0081f8ff  ...'............
 0060 880888a8 0ccae008 00a90788 07cc380c  ..............8.
 0070 08c60f00 81f3ff88 0888b8a8 47985790  ............G.W.
 0080 9a820c2b ad09e008 009d0a88 07990888  ...+............
 0090 078808cc f881eaff 880888c8 a807e008  ................
 00a0 000c0846 03008807 98479918 88079857  ...F.....G.....W
 00b0 99288807 2d081df0 3661007d 01290788  .(..-...6a.}.)..
 00c0 079cb881 dfff8808 88c89807 980990a9  ................
 00d0 20e00800 81dbff88 0888c8a8 07e00800   ...............
 00e0 3df01df0 3661007d 01290739 1749278d  =...6a.}.).9.I'.
 00f0 05825706 8807bce8 88078808 bc888817  ..W.............
 0100 96680388 07881898 1787a92d 88279688  .h.........-.'..
 0110 02880788 28982787 a91f8807 98088807  ....(.'.........
 0120 a8188827 80aa8288 178a8a8a 888a8992  ...'............
 0130 17069258 00460000 3df01df0 3661007d  ...X.F..=...6a.}
 0140 01290739 17492788 078c4888 078808cc  .).9.I'...H.....
 0150 380c0806 0e008817 96180388 07881898  8...............
 0160 1787a928 88279638 02880788 28982787  ...(.'.8....(.'.
 0170 a91a8807 98088807 a8188827 80aa8288  ...........'....
 0180 178a8a8a 888a8982 18004600 000c082d  ..........F....-
 0190 081df000 36c1008d 077d0129 87399749  ....6....}.).9.I
 01a0 a759b769 c782571a 98b78897 8089c080  .Y.i..W.........
 01b0 81608917 989788b7 87a9040c 18460000  .`...........F..
 01c0 7cf88927 98c788a7 8089c080 81608080  |..'.........`..
 01d0 60893798 a788c787 a9050c18 86000000  `.7.............
 01e0 7cf88947 98178837 8a898907 82171add  |..G...7........
 01f0 08c8a7b8 97a887e5 eeff9897 88b78799  ................
 0200 0698a788 c7871937 88078a88 89579857  .......7.....W.W
 0210 88378729 0f980788 378a8989 07989788  .7.)....7.......
 0220 278a8989 97885798 178729bf 98078817  '.....W...).....
 0230 8a898907 98a78847 8a8989a7 06ebff00  .......G........
 0240 3df03df0 1df00000 3681008d 077d0129  =.=.....6....}.)
 0250 07391749 27593769 4782570a 8837e618  .9.I'Y7iG.W..7..
 0260 02c62400 8847e618 02c62200 98178837  ..$..G...."....7
 0270 8a890b88 92170afd 09e827dd 08c827b8  ..........'...'.
 0280 17a80725 f1ff9817 88378a89 0ba89817  ...%.....7......
 0290 88378a89 0bb89827 88478a89 0b889217  .7.....'.G......
 02a0 0afd09ed 08dd0bc8 27bd0aa8 0765eeff  ........'....e..
 02b0 98178837 8a890ba8 98278847 8a890bb8  ...7.....'.G....
 02c0 98278847 8a890b88 92170afd 09ed08d8  .'.G............
 02d0 17cd0bbd 0aa807e5 ebff9827 88478a89  ...........'.G..
 02e0 0b889217 0afd09e8 27d817cd 08b817a8  ........'.......
 02f0 0725eaff 86000000 3df01df0 36a1008d  .%......=...6...
 0300 077d0129 47395749 67597769 87825712  .}.)G9WIgYwi..W.
 0310 8877a618 4a8887a6 18450c08 8907c60c  .w..J....E......
 0320 000c0889 17c60700 98578817 8aa99867  .........W.....g
 0330 88078a89 921712dd 09cd08bd 0aa84765  ..............Ge
 0340 daff8817 1b888917 98178877 8729d888  ...........w.)..
 0350 071b8889 07980788 878729c4 86000000  ..........).....
 0360 3df01df0 36a1007d 01294739 57496759  =...6..}.)G9WIgY
 0370 778d0682 57108877 89070c08 89170c08  w...W..w........
 0380 89278643 00009857 88078aa9 98678817  .'.C...W.....g..
 0390 8a899217 10dd09cd 08a0ba20 a2270465  ........... .'.e
 03a0 d4ff9857 88178aa9 98678807 8a899217  ...W.....g......
 03b0 10dd09cd 08a0ba20 a22704a5 d2ff9857  ....... .'.....W
 03c0 881780a9 c0986788 078a8992 1710dd09  ......g.........
 03d0 cd08bd0a a22704e5 d0ff9857 880780a9  .....'.....W....
 03e0 c0986788 178a8992 1710dd09 cd08bd0a  ..g.............
 03f0 a84725cf ff985788 0780a9c0 98678817  .G%...W......g..
 0400 8089c092 1710dd09 cd08bd0a a84765cd  .............Ge.
 0410 ff985788 1780a9c0 98678807 8089c092  ..W......g......
 0420 1710dd09 cd08bd0a a847a5cb ff985788  .........G....W.
 0430 178aa998 67880780 89c09217 10dd09cd  ....g...........
 0440 08bd0aa2 2704e5c9 ff985788 078aa998  ....'.....W.....
 0450 67881780 89c09217 10dd09cd 08bd0aa2  g...............
 0460 270425c8 ff8827e6 18118817 1b888917  '.%...'.........
 0470 88178a88 1b889827 8a898927 8827a618  .......'...'.'..
 0480 1288070b 88890788 078a881b 88982780  ..............'.
 0490 89c08927 98078817 872902c6 b9ff3df0  ...'.....)....=.
 04a0 3df01df0 36a1007d 01294739 57496759  =...6..}.)G9WIgY
 04b0 778d0682 57108877 80806089 07c61a00  w...W..w..`.....
 04c0 00887780 98828807 80888280 89c08917  ..w.............
 04d0 881796e8 04a81765 61008d0a 9d0bad08  .......ea.......
 04e0 bd09e514 008d0a9d 0bad0890 b920650f  ............. e.
 04f0 008d0a89 27985788 2780a9c0 98678807  ....'.W.'....g..
 0500 8ab99857 88278ac9 98678807 8a899217  ...W.'...g......
 0510 10fd09ed 08dd0ccd 0bbd0aa8 4765c7ff  ............Ge..
 0520 86000000 3df08807 1b888907 88079877  ....=..........w
 0530 87a98d3d f03df01d f0000000 3661007d  ...=.=......6a.}
 0540 018d02ad 039d0482 47008d0a 8247048d  ........G....G..
 0550 09824708 82070080 88238088 11809823  ..G......#.....#
 0560 82a80080 89108098 23820704 808823d0  ........#.....#.
 0570 881180a8 2382a7e0 808a1080 88238089  ....#........#..
 0580 20809823 82070880 83418080 74808823   ..#.....A..t..#
 0590 80892080 88238080 f42d081d f0000000  .. ..#...-......
 05a0 3681007d 01294781 a6fe9847 990881a4  6..}.)G....G....
 05b0 fe880888 38890782 a0f08917 82a11882  ....8...........
 05c0 6702e2a7 ffd2a063 c2a080b2 a08070a7  g......c......p.
 05d0 2025d9ff 819bfe88 088848e0 08003c48   %........H...<H
 05e0 2d081df0 36210061 86fe6743 263044a5  -...6!.a..gC&0D.
 05f0 60539550 44c0e6c4 26a6142f 60732010  `S.PD...&../`s .
 0600 45402057 81001440 50509150 20607025  E@ W...@PP.P `p%
 0610 b31df000 40431120 44201624 0032a000  ....@C. D .$.2..
 0620 5046110b 543045b3 2d041df0 0c021df0  PF..T0E.-.......
 0630 366100ad 02bd03e5 05004172 fea90148  6a........Ar...H
 0640 04b91126 0445cd02 dd0320a2 2030b320  ...&.E.... . 0. 
 0650 816ffee0 0800fc2a 416cfe51 6bfecd04  .o.....*Al.Qk...
 0660 dd05ad02 30b32081 6afee008 00d6ba01  ....0. .j.......
 0670 8169fee0 08002c12 290acd04 dd05ad04  .i....,.).......
 0680 bd058165 fee00800 a901b911 28013811  ...e........(.8.
 0690 1df00000 36410041 5afe9d03 308410ad  ....6A.AZ...0...
 06a0 0247981f cd0230d3 2030b320 8162fee0  .G....0. 0. .b..
 06b0 0800cd0a dd0bad02 bd03815f fee00800  ..........._....
 06c0 860a0000 e6132d81 57fe8083 10208820  ......-.W.... . 
 06d0 1648120c 08871330 cd02dd03 bd038157  .H.....0.......W
 06e0 fee00800 cd0add0b 814cfee0 08002d0a  .........L....-.
 06f0 3d0b8640 00308431 8cd8460d 00a09b41  =..@.0.1..F....A
 0700 22c2ebb0 aa014600 000c0216 e9fe3146  ".....F.......1F
 0710 fe060100 f099111b 883709f7 80306000  .........7...0`.
 0720 0340a030 910b4800 184000aa a1909320  .@.0..H..@..... 
 0730 4082c022 ac012088 80213cfe 20991021  @..".. ..!<. ..!
 0740 3afe2099 2007680b a02f05f0 99112099  :. . .h../.... .
 0750 80f0aa11 f0991180 b121a08f 058a891c  .........!......
 0760 6f0c0391 2efef0aa 112d03cd 0f768c1b  o........-...v..
 0770 9ad2d728 069a2dd0 88c09a33 a04f05f0  ...(..-....3.O..
 0780 88118a84 f0aa1190 91410bff c125fe0c  .........A...%..
 0790 092c0e76 8e30fadc 2048c087 2204dc74  .,.v.0.. H.."..t
 07a0 d73a15ca fdd64d00 961f001b 228d04d7  .:....M....."...
 07b0 ba010b84 d0aac0ca 99a04f05 f088118a  ..........O.....
 07c0 84f0aa11 c0c141a0 88208cf8 6609061b  ......A.. ..f...
 07d0 330c0986 01001b99 7ce22099 102114fe  3.......|. ..!..
 07e0 30a1212a aa909141 07630521 0dfe2099  0.!*...A.c.!.. .
 07f0 20c08b01 aa382d09 1df00000 36c1007d   ....8-.....6..}
 0800 0129c739 d749e759 f788c716 a80c88d7  .).9.I.Y........
 0810 16580c88 c7880816 e80b88d7 88081678  .X.............x
 0820 0b98e70c 08808953 894798f7 0c088089  .......S.G......
 0830 53895788 d7881898 e78a8989 0788d788  S.W.............
 0840 2898f78a 89891788 c7981888 0787a905  (...............
 0850 88c78818 890788c7 98288817 87a90588  .........(......
 0860 c7882889 17885789 27861800 88478937  ..(...W.'....G.7
 0870 86130000 983788e7 8089c089 67982788  .....7......g.'.
 0880 f78089c0 897788d7 980888d7 a8188877  .....w.........w
 0890 80aa8288 678a8a8a 888a8982 18008257  ....g..........W
 08a0 1088c798 0888c7a8 18882780 aa828837  ..........'....7
 08b0 8a8a8a88 8a899217 10925800 88371b88  ..........X..7..
 08c0 89379837 88078729 aa88271b 88892798  .7.7...)..'...'.
 08d0 27881787 29954600 003df01d f0000000  '...).F..=......
 08e0 36a1007d 01298788 87cc480c 08862400  6..}.)....H...$.
 08f0 00888798 28888788 18bd08ad 096574ff  ....(........et.
 0900 a9278827 cc480c08 c61d0000 0c088907  .'.'.H..........
 0910 06190000 0c088917 46130000 88879808  ........F.......
 0920 8887a818 880780aa 8288178a 8a8a888a  ................
 0930 89821800 82570688 8788280b 98880780  .....W....(.....
 0940 89c08947 88178957 88279808 8827a818  ...G...W.'...'..
 0950 885780aa 8288478a 8a8a888a 89921706  .W....G.........
 0960 92580088 171b8889 17888788 18981787  .X..............
 0970 29a98807 1b888907 88878828 98078729  )..........(...)
 0980 9288272d 081df000 36a1007d 01298788  ..'-....6..}.)..
 0990 87cc480c 08062600 00888798 18888788  ..H...&.........
 09a0 28bd08ad 09e569ff a9278827 cc380c08  (.....i..'.'.8..
 09b0 461f000c 088907c6 1a000c08 89174615  F.............F.
 09c0 00888798 088887a8 18880780 aa828817  ................
 09d0 8a8a8a88 8a898218 00825706 88878818  ..........W.....
 09e0 0b988817 8089c089 47888788 280b9888  ........G...(...
 09f0 078089c0 89578827 98088827 a8188857  .....W.'...'...W
 0a00 80aa8288 478a8a8a 888a8992 17069258  ....G..........X
 0a10 0088171b 88891788 87881898 178729a0  ..............).
 0a20 88071b88 89078887 88289807 87298a88  .........(...)..
 0a30 272d081d f0000000 36a1007d 01298788  '-......6..}.)..
 0a40 87cc480c 08862400 00888798 28888788  ..H...$.....(...
 0a50 18bd08ad 09e55eff a9278827 cc480c08  ......^..'.'.H..
 0a60 c61d0000 0c088907 06190000 0c088917  ................
 0a70 46130000 88879808 8887a818 880780aa  F...............
 0a80 8288178a 8a8a888a 89821800 82570688  .............W..
 0a90 07894788 8788180b 98881780 89c08957  ..G............W
 0aa0 88279808 8827a818 885780aa 8288478a  .'...'...W....G.
 0ab0 8a8a888a 89921706 92580088 171b8889  .........X......
 0ac0 17888788 18981787 29a98807 1b888907  ........).......
 0ad0 88878828 98078729 9288272d 081df000  ...(...)..'-....
 0ae0 362100bc 220c0706 03000000 362100ac  6!..".......6!..
 0af0 62207f05 20216040 f2400014 400052a1  b .. !`@.@..@.R.
 0b00 503b41b0 250152a4 1d4055c0 c055015a  P;A.%.R..@U..U.Z
 0b10 33107701 7033201d f00c031d f0        3.w.p3 ......   
Contents of section .data:
 0b20 ffffffff                             ....            

Disassembly of section .text:

00000000 <_text_start>:
   0:	f00000        	subx8	a0, a0, a0
   3:	0000007f 	ee.vmulas.s16.accx.ld.ip.qup	q0, a7, 0, q4, q0, q0, q0
	...
  1b:	000000        	ill
  1e:	20          	.byte 0x20
  1f:	000000        	ill
  22:	00          	.byte 00
  23:	80          	.byte 0x80
  24:	7fffffff 	ee.vmulas.u8.qacc.ld.ip.qup	q7, a15, -16, q7, q7, q7, q7
  28:	100000        	and	a0, a0, a0
  2b:	00          	.byte 00
  2c:	000fffff 	ee.vmulas.s16.accx.ld.ip.qup	q1, a15, 240, q7, q6, q0, q7
  30:	e00000        	subx4	a0, a0, a0
  33:	0000003f 	ee.vmulas.s16.accx.ld.ip.qup	q0, a3, 0, q4, q0, q0, q0
	...

00000044 <create_canvas>:
  44:	008136        	entry	a1, 64
  47:	017d      	mov.n	a7, a1
  49:	4729      	s32i.n	a2, a7, 16
  4b:	5739      	s32i.n	a3, a7, 20
  4d:	4788      	l32i.n	a8, a7, 16
  4f:	0518a6        	blti	a8, 1, 58 <create_canvas+0x14>
  52:	052782        	l32i	a8, a7, 20
  55:	0418e6        	bgei	a8, 1, 5d <create_canvas+0x19>
  58:	080c      	movi.n	a8, 0
  5a:	001586        	j	b4 <create_canvas+0x70>
  5d:	fff881        	l32r	a8, 40 <_text_start+0x40>
  60:	0888      	l32i.n	a8, a8, 0
  62:	a888      	l32i.n	a8, a8, 40
  64:	ca0c      	movi.n	a10, 12
  66:	0008e0        	callx8	a8
  69:	07a9      	s32i.n	a10, a7, 0
  6b:	0788      	l32i.n	a8, a7, 0
  6d:	38cc      	bnez.n	a8, 74 <create_canvas+0x30>
  6f:	080c      	movi.n	a8, 0
  71:	000fc6        	j	b4 <create_canvas+0x70>
  74:	fff381        	l32r	a8, 40 <_text_start+0x40>
  77:	0888      	l32i.n	a8, a8, 0
  79:	b888      	l32i.n	a8, a8, 44
  7b:	47a8      	l32i.n	a10, a7, 16
  7d:	5798      	l32i.n	a9, a7, 20
  7f:	829a90        	mull	a9, a10, a9
  82:	2b0c      	movi.n	a11, 2
  84:	09ad      	mov.n	a10, a9
  86:	0008e0        	callx8	a8
  89:	0a9d      	mov.n	a9, a10
  8b:	0788      	l32i.n	a8, a7, 0
  8d:	0899      	s32i.n	a9, a8, 0
  8f:	0788      	l32i.n	a8, a7, 0
  91:	0888      	l32i.n	a8, a8, 0
  93:	f8cc      	bnez.n	a8, a6 <create_canvas+0x62>
  95:	ffea81        	l32r	a8, 40 <_text_start+0x40>
  98:	0888      	l32i.n	a8, a8, 0
  9a:	c888      	l32i.n	a8, a8, 48
  9c:	07a8      	l32i.n	a10, a7, 0
  9e:	0008e0        	callx8	a8
  a1:	080c      	movi.n	a8, 0
  a3:	000346        	j	b4 <create_canvas+0x70>
  a6:	0788      	l32i.n	a8, a7, 0
  a8:	4798      	l32i.n	a9, a7, 16
  aa:	1899      	s32i.n	a9, a8, 4
  ac:	0788      	l32i.n	a8, a7, 0
  ae:	5798      	l32i.n	a9, a7, 20
  b0:	2899      	s32i.n	a9, a8, 8
  b2:	0788      	l32i.n	a8, a7, 0
  b4:	082d      	mov.n	a2, a8
  b6:	f01d      	retw.n

000000b8 <free_canvas>:
  b8:	006136        	entry	a1, 48
  bb:	017d      	mov.n	a7, a1
  bd:	0729      	s32i.n	a2, a7, 0
  bf:	0788      	l32i.n	a8, a7, 0
  c1:	b89c      	beqz.n	a8, e0 <free_canvas+0x28>
  c3:	ffdf81        	l32r	a8, 40 <_text_start+0x40>
  c6:	0888      	l32i.n	a8, a8, 0
  c8:	c888      	l32i.n	a8, a8, 48
  ca:	0798      	l32i.n	a9, a7, 0
  cc:	0998      	l32i.n	a9, a9, 0
  ce:	20a990        	or	a10, a9, a9
  d1:	0008e0        	callx8	a8
  d4:	ffdb81        	l32r	a8, 40 <_text_start+0x40>
  d7:	0888      	l32i.n	a8, a8, 0
  d9:	c888      	l32i.n	a8, a8, 48
  db:	07a8      	l32i.n	a10, a7, 0
  dd:	0008e0        	callx8	a8
  e0:	f03d      	nop.n
  e2:	f01d      	retw.n

000000e4 <set_pixel>:
  e4:	006136        	entry	a1, 48
  e7:	017d      	mov.n	a7, a1
  e9:	0729      	s32i.n	a2, a7, 0
  eb:	1739      	s32i.n	a3, a7, 4
  ed:	2749      	s32i.n	a4, a7, 8
  ef:	058d      	mov.n	a8, a5
  f1:	065782        	s16i	a8, a7, 12
  f4:	0788      	l32i.n	a8, a7, 0
  f6:	e8bc      	beqz.n	a8, 138 <set_pixel+0x54>
  f8:	0788      	l32i.n	a8, a7, 0
  fa:	0888      	l32i.n	a8, a8, 0
  fc:	88bc      	beqz.n	a8, 138 <set_pixel+0x54>
  fe:	1788      	l32i.n	a8, a7, 4
 100:	036896        	bltz	a8, 13a <set_pixel+0x56>
 103:	0788      	l32i.n	a8, a7, 0
 105:	1888      	l32i.n	a8, a8, 4
 107:	1798      	l32i.n	a9, a7, 4
 109:	2da987        	bge	a9, a8, 13a <set_pixel+0x56>
 10c:	2788      	l32i.n	a8, a7, 8
 10e:	028896        	bltz	a8, 13a <set_pixel+0x56>
 111:	0788      	l32i.n	a8, a7, 0
 113:	2888      	l32i.n	a8, a8, 8
 115:	2798      	l32i.n	a9, a7, 8
 117:	1fa987        	bge	a9, a8, 13a <set_pixel+0x56>
 11a:	0788      	l32i.n	a8, a7, 0
 11c:	0898      	l32i.n	a9, a8, 0
 11e:	0788      	l32i.n	a8, a7, 0
 120:	18a8      	l32i.n	a10, a8, 4
 122:	2788      	l32i.n	a8, a7, 8
 124:	82aa80        	mull	a10, a10, a8
 127:	1788      	l32i.n	a8, a7, 4
 129:	8a8a      	add.n	a8, a10, a8
 12b:	888a      	add.n	a8, a8, a8
 12d:	898a      	add.n	a8, a9, a8
 12f:	061792        	l16ui	a9, a7, 12
 132:	005892        	s16i	a9, a8, 0
 135:	000046        	j	13a <set_pixel+0x56>
 138:	f03d      	nop.n
 13a:	f01d      	retw.n

0000013c <get_pixel>:
 13c:	006136        	entry	a1, 48
 13f:	017d      	mov.n	a7, a1
 141:	0729      	s32i.n	a2, a7, 0
 143:	1739      	s32i.n	a3, a7, 4
 145:	2749      	s32i.n	a4, a7, 8
 147:	0788      	l32i.n	a8, a7, 0
 149:	488c      	beqz.n	a8, 151 <get_pixel+0x15>
 14b:	0788      	l32i.n	a8, a7, 0
 14d:	0888      	l32i.n	a8, a8, 0
 14f:	38cc      	bnez.n	a8, 156 <get_pixel+0x1a>
 151:	080c      	movi.n	a8, 0
 153:	000e06        	j	18f <get_pixel+0x53>
 156:	1788      	l32i.n	a8, a7, 4
 158:	031896        	bltz	a8, 18d <get_pixel+0x51>
 15b:	0788      	l32i.n	a8, a7, 0
 15d:	1888      	l32i.n	a8, a8, 4
 15f:	1798      	l32i.n	a9, a7, 4
 161:	28a987        	bge	a9, a8, 18d <get_pixel+0x51>
 164:	2788      	l32i.n	a8, a7, 8
 166:	023896        	bltz	a8, 18d <get_pixel+0x51>
 169:	0788      	l32i.n	a8, a7, 0
 16b:	2888      	l32i.n	a8, a8, 8
 16d:	2798      	l32i.n	a9, a7, 8
 16f:	1aa987        	bge	a9, a8, 18d <get_pixel+0x51>
 172:	0788      	l32i.n	a8, a7, 0
 174:	0898      	l32i.n	a9, a8, 0
 176:	0788      	l32i.n	a8, a7, 0
 178:	18a8      	l32i.n	a10, a8, 4
 17a:	2788      	l32i.n	a8, a7, 8
 17c:	82aa80        	mull	a10, a10, a8
 17f:	1788      	l32i.n	a8, a7, 4
 181:	8a8a      	add.n	a8, a10, a8
 183:	888a      	add.n	a8, a8, a8
 185:	898a      	add.n	a8, a9, a8
 187:	001882        	l16ui	a8, a8, 0
 18a:	000046        	j	18f <get_pixel+0x53>
 18d:	080c      	movi.n	a8, 0
 18f:	082d      	mov.n	a2, a8
 191:	f01d      	retw.n
	...

00000194 <draw_line>:
 194:	00c136        	entry	a1, 96
 197:	078d      	mov.n	a8, a7
 199:	017d      	mov.n	a7, a1
 19b:	8729      	s32i.n	a2, a7, 32
 19d:	9739      	s32i.n	a3, a7, 36
 19f:	a749      	s32i.n	a4, a7, 40
 1a1:	b759      	s32i.n	a5, a7, 44
 1a3:	c769      	s32i.n	a6, a7, 48
 1a5:	1a5782        	s16i	a8, a7, 52
 1a8:	b798      	l32i.n	a9, a7, 44
 1aa:	9788      	l32i.n	a8, a7, 36
 1ac:	c08980        	sub	a8, a9, a8
 1af:	608180        	abs	a8, a8
 1b2:	1789      	s32i.n	a8, a7, 4
 1b4:	9798      	l32i.n	a9, a7, 36
 1b6:	b788      	l32i.n	a8, a7, 44
 1b8:	04a987        	bge	a9, a8, 1c0 <draw_line+0x2c>
 1bb:	180c      	movi.n	a8, 1
 1bd:	000046        	j	1c2 <draw_line+0x2e>
 1c0:	f87c      	movi.n	a8, -1
 1c2:	2789      	s32i.n	a8, a7, 8
 1c4:	c798      	l32i.n	a9, a7, 48
 1c6:	a788      	l32i.n	a8, a7, 40
 1c8:	c08980        	sub	a8, a9, a8
 1cb:	608180        	abs	a8, a8
 1ce:	608080        	neg	a8, a8
 1d1:	3789      	s32i.n	a8, a7, 12
 1d3:	a798      	l32i.n	a9, a7, 40
 1d5:	c788      	l32i.n	a8, a7, 48
 1d7:	05a987        	bge	a9, a8, 1e0 <draw_line+0x4c>
 1da:	180c      	movi.n	a8, 1
 1dc:	000086        	j	1e2 <draw_line+0x4e>
 1df:	00          	.byte 00
 1e0:	f87c      	movi.n	a8, -1
 1e2:	4789      	s32i.n	a8, a7, 16
 1e4:	1798      	l32i.n	a9, a7, 4
 1e6:	3788      	l32i.n	a8, a7, 12
 1e8:	898a      	add.n	a8, a9, a8
 1ea:	0789      	s32i.n	a8, a7, 0
 1ec:	1a1782        	l16ui	a8, a7, 52
 1ef:	08dd      	mov.n	a13, a8
 1f1:	a7c8      	l32i.n	a12, a7, 40
 1f3:	97b8      	l32i.n	a11, a7, 36
 1f5:	87a8      	l32i.n	a10, a7, 32
 1f7:	ffeee5        	call8	e4 <set_pixel>
 1fa:	9798      	l32i.n	a9, a7, 36
 1fc:	b788      	l32i.n	a8, a7, 44
 1fe:	069987        	bne	a9, a8, 208 <draw_line+0x74>
 201:	a798      	l32i.n	a9, a7, 40
 203:	c788      	l32i.n	a8, a7, 48
 205:	371987        	beq	a9, a8, 240 <draw_line+0xac>
 208:	0788      	l32i.n	a8, a7, 0
 20a:	888a      	add.n	a8, a8, a8
 20c:	5789      	s32i.n	a8, a7, 20
 20e:	5798      	l32i.n	a9, a7, 20
 210:	3788      	l32i.n	a8, a7, 12
 212:	0f2987        	blt	a9, a8, 225 <draw_line+0x91>
 215:	0798      	l32i.n	a9, a7, 0
 217:	3788      	l32i.n	a8, a7, 12
 219:	898a      	add.n	a8, a9, a8
 21b:	0789      	s32i.n	a8, a7, 0
 21d:	9798      	l32i.n	a9, a7, 36
 21f:	2788      	l32i.n	a8, a7, 8
 221:	898a      	add.n	a8, a9, a8
 223:	9789      	s32i.n	a8, a7, 36
 225:	5788      	l32i.n	a8, a7, 20
 227:	1798      	l32i.n	a9, a7, 4
 229:	bf2987        	blt	a9, a8, 1ec <draw_line+0x58>
 22c:	0798      	l32i.n	a9, a7, 0
 22e:	1788      	l32i.n	a8, a7, 4
 230:	898a      	add.n	a8, a9, a8
 232:	0789      	s32i.n	a8, a7, 0
 234:	a798      	l32i.n	a9, a7, 40
 236:	4788      	l32i.n	a8, a7, 16
 238:	898a      	add.n	a8, a9, a8
 23a:	a789      	s32i.n	a8, a7, 40
 23c:	ffeb06        	j	1ec <draw_line+0x58>
 23f:	f03d00        	subx8	a3, a13, a0
 242:	f03d      	nop.n
 244:	f01d      	retw.n
	...

00000248 <draw_rect>:
 248:	008136        	entry	a1, 64
 24b:	078d      	mov.n	a8, a7
 24d:	017d      	mov.n	a7, a1
 24f:	0729      	s32i.n	a2, a7, 0
 251:	1739      	s32i.n	a3, a7, 4
 253:	2749      	s32i.n	a4, a7, 8
 255:	3759      	s32i.n	a5, a7, 12
 257:	4769      	s32i.n	a6, a7, 16
 259:	0a5782        	s16i	a8, a7, 20
 25c:	3788      	l32i.n	a8, a7, 12
 25e:	0218e6        	bgei	a8, 1, 264 <draw_rect+0x1c>
 261:	0024c6        	j	2f8 <draw_rect+0xb0>
 264:	4788      	l32i.n	a8, a7, 16
 266:	0218e6        	bgei	a8, 1, 26c <draw_rect+0x24>
 269:	0022c6        	j	2f8 <draw_rect+0xb0>
 26c:	1798      	l32i.n	a9, a7, 4
 26e:	3788      	l32i.n	a8, a7, 12
 270:	898a      	add.n	a8, a9, a8
 272:	880b      	addi.n	a8, a8, -1
 274:	0a1792        	l16ui	a9, a7, 20
 277:	09fd      	mov.n	a15, a9
 279:	27e8      	l32i.n	a14, a7, 8
 27b:	08dd      	mov.n	a13, a8
 27d:	27c8      	l32i.n	a12, a7, 8
 27f:	17b8      	l32i.n	a11, a7, 4
 281:	07a8      	l32i.n	a10, a7, 0
 283:	fff125        	call8	194 <draw_line>
 286:	1798      	l32i.n	a9, a7, 4
 288:	3788      	l32i.n	a8, a7, 12
 28a:	898a      	add.n	a8, a9, a8
 28c:	a80b      	addi.n	a10, a8, -1
 28e:	1798      	l32i.n	a9, a7, 4
 290:	3788      	l32i.n	a8, a7, 12
 292:	898a      	add.n	a8, a9, a8
 294:	b80b      	addi.n	a11, a8, -1
 296:	2798      	l32i.n	a9, a7, 8
 298:	4788      	l32i.n	a8, a7, 16
 29a:	898a      	add.n	a8, a9, a8
 29c:	880b      	addi.n	a8, a8, -1
 29e:	0a1792        	l16ui	a9, a7, 20
 2a1:	09fd      	mov.n	a15, a9
 2a3:	08ed      	mov.n	a14, a8
 2a5:	0bdd      	mov.n	a13, a11
 2a7:	27c8      	l32i.n	a12, a7, 8
 2a9:	0abd      	mov.n	a11, a10
 2ab:	07a8      	l32i.n	a10, a7, 0
 2ad:	ffee65        	call8	194 <draw_line>
 2b0:	1798      	l32i.n	a9, a7, 4
 2b2:	3788      	l32i.n	a8, a7, 12
 2b4:	898a      	add.n	a8, a9, a8
 2b6:	a80b      	addi.n	a10, a8, -1
 2b8:	2798      	l32i.n	a9, a7, 8
 2ba:	4788      	l32i.n	a8, a7, 16
 2bc:	898a      	add.n	a8, a9, a8
 2be:	b80b      	addi.n	a11, a8, -1
 2c0:	2798      	l32i.n	a9, a7, 8
 2c2:	4788      	l32i.n	a8, a7, 16
 2c4:	898a      	add.n	a8, a9, a8
 2c6:	880b      	addi.n	a8, a8, -1
 2c8:	0a1792        	l16ui	a9, a7, 20
 2cb:	09fd      	mov.n	a15, a9
 2cd:	08ed      	mov.n	a14, a8
 2cf:	17d8      	l32i.n	a13, a7, 4
 2d1:	0bcd      	mov.n	a12, a11
 2d3:	0abd      	mov.n	a11, a10
 2d5:	07a8      	l32i.n	a10, a7, 0
 2d7:	ffebe5        	call8	194 <draw_line>
 2da:	2798      	l32i.n	a9, a7, 8
 2dc:	4788      	l32i.n	a8, a7, 16
 2de:	898a      	add.n	a8, a9, a8
 2e0:	880b      	addi.n	a8, a8, -1
 2e2:	0a1792        	l16ui	a9, a7, 20
 2e5:	09fd      	mov.n	a15, a9
 2e7:	27e8      	l32i.n	a14, a7, 8
 2e9:	17d8      	l32i.n	a13, a7, 4
 2eb:	08cd      	mov.n	a12, a8
 2ed:	17b8      	l32i.n	a11, a7, 4
 2ef:	07a8      	l32i.n	a10, a7, 0
 2f1:	ffea25        	call8	194 <draw_line>
 2f4:	000086        	j	2fa <draw_rect+0xb2>
 2f7:	f03d00        	subx8	a3, a13, a0
 2fa:	f01d      	retw.n

000002fc <fill_rect>:
 2fc:	00a136        	entry	a1, 80
 2ff:	078d      	mov.n	a8, a7
 301:	017d      	mov.n	a7, a1
 303:	4729      	s32i.n	a2, a7, 16
 305:	5739      	s32i.n	a3, a7, 20
 307:	6749      	s32i.n	a4, a7, 24
 309:	7759      	s32i.n	a5, a7, 28
 30b:	8769      	s32i.n	a6, a7, 32
 30d:	125782        	s16i	a8, a7, 36
 310:	7788      	l32i.n	a8, a7, 28
 312:	4a18a6        	blti	a8, 1, 360 <fill_rect+0x64>
 315:	8788      	l32i.n	a8, a7, 32
 317:	4518a6        	blti	a8, 1, 360 <fill_rect+0x64>
 31a:	080c      	movi.n	a8, 0
 31c:	0789      	s32i.n	a8, a7, 0
 31e:	000cc6        	j	355 <fill_rect+0x59>
 321:	080c      	movi.n	a8, 0
 323:	1789      	s32i.n	a8, a7, 4
 325:	0007c6        	j	348 <fill_rect+0x4c>
 328:	5798      	l32i.n	a9, a7, 20
 32a:	1788      	l32i.n	a8, a7, 4
 32c:	a98a      	add.n	a10, a9, a8
 32e:	6798      	l32i.n	a9, a7, 24
 330:	0788      	l32i.n	a8, a7, 0
 332:	898a      	add.n	a8, a9, a8
 334:	121792        	l16ui	a9, a7, 36
 337:	09dd      	mov.n	a13, a9
 339:	08cd      	mov.n	a12, a8
 33b:	0abd      	mov.n	a11, a10
 33d:	47a8      	l32i.n	a10, a7, 16
 33f:	ffda65        	call8	e4 <set_pixel>
 342:	1788      	l32i.n	a8, a7, 4
 344:	881b      	addi.n	a8, a8, 1
 346:	1789      	s32i.n	a8, a7, 4
 348:	1798      	l32i.n	a9, a7, 4
 34a:	7788      	l32i.n	a8, a7, 28
 34c:	d82987        	blt	a9, a8, 328 <fill_rect+0x2c>
 34f:	0788      	l32i.n	a8, a7, 0
 351:	881b      	addi.n	a8, a8, 1
 353:	0789      	s32i.n	a8, a7, 0
 355:	0798      	l32i.n	a9, a7, 0
 357:	8788      	l32i.n	a8, a7, 32
 359:	c42987        	blt	a9, a8, 321 <fill_rect+0x25>
 35c:	000086        	j	362 <fill_rect+0x66>
 35f:	f03d00        	subx8	a3, a13, a0
 362:	f01d      	retw.n

00000364 <draw_circle>:
 364:	00a136        	entry	a1, 80
 367:	017d      	mov.n	a7, a1
 369:	4729      	s32i.n	a2, a7, 16
 36b:	5739      	s32i.n	a3, a7, 20
 36d:	6749      	s32i.n	a4, a7, 24
 36f:	7759      	s32i.n	a5, a7, 28
 371:	068d      	mov.n	a8, a6
 373:	105782        	s16i	a8, a7, 32
 376:	7788      	l32i.n	a8, a7, 28
 378:	0789      	s32i.n	a8, a7, 0
 37a:	080c      	movi.n	a8, 0
 37c:	1789      	s32i.n	a8, a7, 4
 37e:	080c      	movi.n	a8, 0
 380:	2789      	s32i.n	a8, a7, 8
 382:	004386        	j	494 <draw_circle+0x130>
 385:	579800        	ee.stf.64.xp	f9, f5, a0, a8
 388:	0788      	l32i.n	a8, a7, 0
 38a:	a98a      	add.n	a10, a9, a8
 38c:	6798      	l32i.n	a9, a7, 24
 38e:	1788      	l32i.n	a8, a7, 4
 390:	898a      	add.n	a8, a9, a8
 392:	101792        	l16ui	a9, a7, 32
 395:	09dd      	mov.n	a13, a9
 397:	08cd      	mov.n	a12, a8
 399:	20baa0        	or	a11, a10, a10
 39c:	0427a2        	l32i	a10, a7, 16
 39f:	ffd465        	call8	e4 <set_pixel>
 3a2:	5798      	l32i.n	a9, a7, 20
 3a4:	1788      	l32i.n	a8, a7, 4
 3a6:	a98a      	add.n	a10, a9, a8
 3a8:	6798      	l32i.n	a9, a7, 24
 3aa:	0788      	l32i.n	a8, a7, 0
 3ac:	898a      	add.n	a8, a9, a8
 3ae:	101792        	l16ui	a9, a7, 32
 3b1:	09dd      	mov.n	a13, a9
 3b3:	08cd      	mov.n	a12, a8
 3b5:	20baa0        	or	a11, a10, a10
 3b8:	0427a2        	l32i	a10, a7, 16
 3bb:	ffd2a5        	call8	e4 <set_pixel>
 3be:	5798      	l32i.n	a9, a7, 20
 3c0:	1788      	l32i.n	a8, a7, 4
 3c2:	c0a980        	sub	a10, a9, a8
 3c5:	6798      	l32i.n	a9, a7, 24
 3c7:	0788      	l32i.n	a8, a7, 0
 3c9:	898a      	add.n	a8, a9, a8
 3cb:	101792        	l16ui	a9, a7, 32
 3ce:	09dd      	mov.n	a13, a9
 3d0:	08cd      	mov.n	a12, a8
 3d2:	0abd      	mov.n	a11, a10
 3d4:	0427a2        	l32i	a10, a7, 16
 3d7:	ffd0e5        	call8	e4 <set_pixel>
 3da:	5798      	l32i.n	a9, a7, 20
 3dc:	0788      	l32i.n	a8, a7, 0
 3de:	c0a980        	sub	a10, a9, a8
 3e1:	6798      	l32i.n	a9, a7, 24
 3e3:	1788      	l32i.n	a8, a7, 4
 3e5:	898a      	add.n	a8, a9, a8
 3e7:	101792        	l16ui	a9, a7, 32
 3ea:	09dd      	mov.n	a13, a9
 3ec:	08cd      	mov.n	a12, a8
 3ee:	0abd      	mov.n	a11, a10
 3f0:	47a8      	l32i.n	a10, a7, 16
 3f2:	ffcf25        	call8	e4 <set_pixel>
 3f5:	5798      	l32i.n	a9, a7, 20
 3f7:	0788      	l32i.n	a8, a7, 0
 3f9:	c0a980        	sub	a10, a9, a8
 3fc:	6798      	l32i.n	a9, a7, 24
 3fe:	1788      	l32i.n	a8, a7, 4
 400:	c08980        	sub	a8, a9, a8
 403:	101792        	l16ui	a9, a7, 32
 406:	09dd      	mov.n	a13, a9
 408:	08cd      	mov.n	a12, a8
 40a:	0abd      	mov.n	a11, a10
 40c:	47a8      	l32i.n	a10, a7, 16
 40e:	ffcd65        	call8	e4 <set_pixel>
 411:	5798      	l32i.n	a9, a7, 20
 413:	1788      	l32i.n	a8, a7, 4
 415:	c0a980        	sub	a10, a9, a8
 418:	6798      	l32i.n	a9, a7, 24
 41a:	0788      	l32i.n	a8, a7, 0
 41c:	c08980        	sub	a8, a9, a8
 41f:	101792        	l16ui	a9, a7, 32
 422:	09dd      	mov.n	a13, a9
 424:	08cd      	mov.n	a12, a8
 426:	0abd      	mov.n	a11, a10
 428:	47a8      	l32i.n	a10, a7, 16
 42a:	ffcba5        	call8	e4 <set_pixel>
 42d:	5798      	l32i.n	a9, a7, 20
 42f:	1788      	l32i.n	a8, a7, 4
 431:	a98a      	add.n	a10, a9, a8
 433:	6798      	l32i.n	a9, a7, 24
 435:	0788      	l32i.n	a8, a7, 0
 437:	c08980        	sub	a8, a9, a8
 43a:	101792        	l16ui	a9, a7, 32
 43d:	09dd      	mov.n	a13, a9
 43f:	08cd      	mov.n	a12, a8
 441:	0abd      	mov.n	a11, a10
 443:	0427a2        	l32i	a10, a7, 16
 446:	ffc9e5        	call8	e4 <set_pixel>
 449:	5798      	l32i.n	a9, a7, 20
 44b:	0788      	l32i.n	a8, a7, 0
 44d:	a98a      	add.n	a10, a9, a8
 44f:	6798      	l32i.n	a9, a7, 24
 451:	1788      	l32i.n	a8, a7, 4
 453:	c08980        	sub	a8, a9, a8
 456:	101792        	l16ui	a9, a7, 32
 459:	09dd      	mov.n	a13, a9
 45b:	08cd      	mov.n	a12, a8
 45d:	0abd      	mov.n	a11, a10
 45f:	0427a2        	l32i	a10, a7, 16
 462:	ffc825        	call8	e4 <set_pixel>
 465:	2788      	l32i.n	a8, a7, 8
 467:	1118e6        	bgei	a8, 1, 47c <draw_circle+0x118>
 46a:	1788      	l32i.n	a8, a7, 4
 46c:	881b      	addi.n	a8, a8, 1
 46e:	1789      	s32i.n	a8, a7, 4
 470:	1788      	l32i.n	a8, a7, 4
 472:	888a      	add.n	a8, a8, a8
 474:	881b      	addi.n	a8, a8, 1
 476:	2798      	l32i.n	a9, a7, 8
 478:	898a      	add.n	a8, a9, a8
 47a:	2789      	s32i.n	a8, a7, 8
 47c:	2788      	l32i.n	a8, a7, 8
 47e:	1218a6        	blti	a8, 1, 494 <draw_circle+0x130>
 481:	0788      	l32i.n	a8, a7, 0
 483:	880b      	addi.n	a8, a8, -1
 485:	0789      	s32i.n	a8, a7, 0
 487:	0788      	l32i.n	a8, a7, 0
 489:	888a      	add.n	a8, a8, a8
 48b:	881b      	addi.n	a8, a8, 1
 48d:	2798      	l32i.n	a9, a7, 8
 48f:	c08980        	sub	a8, a9, a8
 492:	2789      	s32i.n	a8, a7, 8
 494:	0798      	l32i.n	a9, a7, 0
 496:	1788      	l32i.n	a8, a7, 4
 498:	022987        	blt	a9, a8, 49e <draw_circle+0x13a>
 49b:	ffb9c6        	j	386 <draw_circle+0x22>
 49e:	f03d      	nop.n
 4a0:	f03d      	nop.n
 4a2:	f01d      	retw.n

000004a4 <fill_circle>:
 4a4:	00a136        	entry	a1, 80
 4a7:	017d      	mov.n	a7, a1
 4a9:	4729      	s32i.n	a2, a7, 16
 4ab:	5739      	s32i.n	a3, a7, 20
 4ad:	6749      	s32i.n	a4, a7, 24
 4af:	7759      	s32i.n	a5, a7, 28
 4b1:	068d      	mov.n	a8, a6
 4b3:	105782        	s16i	a8, a7, 32
 4b6:	7788      	l32i.n	a8, a7, 28
 4b8:	608080        	neg	a8, a8
 4bb:	0789      	s32i.n	a8, a7, 0
 4bd:	001ac6        	j	52c <fill_circle+0x88>
 4c0:	778800        	ee.stf.64.xp	f8, f7, a0, a8
 4c3:	829880        	mull	a9, a8, a8
 4c6:	0788      	l32i.n	a8, a7, 0
 4c8:	828880        	mull	a8, a8, a8
 4cb:	c08980        	sub	a8, a9, a8
 4ce:	1789      	s32i.n	a8, a7, 4
 4d0:	1788      	l32i.n	a8, a7, 4
 4d2:	04e896        	bltz	a8, 524 <fill_circle+0x80>
 4d5:	17a8      	l32i.n	a10, a7, 4
 4d7:	006165        	call8	aec <__floatsidf>
 4da:	0a8d      	mov.n	a8, a10
 4dc:	0b9d      	mov.n	a9, a11
 4de:	08ad      	mov.n	a10, a8
 4e0:	09bd      	mov.n	a11, a9
 4e2:	0014e5        	call8	630 <sqrt>
 4e5:	0a8d      	mov.n	a8, a10
 4e7:	0b9d      	mov.n	a9, a11
 4e9:	08ad      	mov.n	a10, a8
 4eb:	20b990        	or	a11, a9, a9
 4ee:	000f65        	call8	5e4 <__fixdfsi>
 4f1:	0a8d      	mov.n	a8, a10
 4f3:	2789      	s32i.n	a8, a7, 8
 4f5:	5798      	l32i.n	a9, a7, 20
 4f7:	2788      	l32i.n	a8, a7, 8
 4f9:	c0a980        	sub	a10, a9, a8
 4fc:	6798      	l32i.n	a9, a7, 24
 4fe:	0788      	l32i.n	a8, a7, 0
 500:	b98a      	add.n	a11, a9, a8
 502:	5798      	l32i.n	a9, a7, 20
 504:	2788      	l32i.n	a8, a7, 8
 506:	c98a      	add.n	a12, a9, a8
 508:	6798      	l32i.n	a9, a7, 24
 50a:	0788      	l32i.n	a8, a7, 0
 50c:	898a      	add.n	a8, a9, a8
 50e:	101792        	l16ui	a9, a7, 32
 511:	09fd      	mov.n	a15, a9
 513:	08ed      	mov.n	a14, a8
 515:	0cdd      	mov.n	a13, a12
 517:	0bcd      	mov.n	a12, a11
 519:	0abd      	mov.n	a11, a10
 51b:	47a8      	l32i.n	a10, a7, 16
 51d:	ffc765        	call8	194 <draw_line>
 520:	000086        	j	526 <fill_circle+0x82>
 523:	f03d00        	subx8	a3, a13, a0
 526:	0788      	l32i.n	a8, a7, 0
 528:	881b      	addi.n	a8, a8, 1
 52a:	0789      	s32i.n	a8, a7, 0
 52c:	0788      	l32i.n	a8, a7, 0
 52e:	7798      	l32i.n	a9, a7, 28
 530:	8da987        	bge	a9, a8, 4c1 <fill_circle+0x1d>
 533:	f03d      	nop.n
 535:	f03d      	nop.n
 537:	f01d      	retw.n
 539:	000000        	ill

0000053c <rgb565>:
 53c:	006136        	entry	a1, 48
 53f:	017d      	mov.n	a7, a1
 541:	028d      	mov.n	a8, a2
 543:	03ad      	mov.n	a10, a3
 545:	049d      	mov.n	a9, a4
 547:	004782        	s8i	a8, a7, 0
 54a:	0a8d      	mov.n	a8, a10
 54c:	044782        	s8i	a8, a7, 4
 54f:	098d      	mov.n	a8, a9
 551:	084782        	s8i	a8, a7, 8
 554:	000782        	l8ui	a8, a7, 0
 557:	238880        	sext	a8, a8, 15
 55a:	118880        	slli	a8, a8, 8
 55d:	239880        	sext	a9, a8, 15
 560:	00a882        	movi	a8, 0xfffff800
 563:	108980        	and	a8, a9, a8
 566:	239880        	sext	a9, a8, 15
 569:	040782        	l8ui	a8, a7, 4
 56c:	238880        	sext	a8, a8, 15
 56f:	1188d0        	slli	a8, a8, 3
 572:	23a880        	sext	a10, a8, 15
 575:	e0a782        	movi	a8, 0x7e0
 578:	108a80        	and	a8, a10, a8
 57b:	238880        	sext	a8, a8, 15
 57e:	208980        	or	a8, a9, a8
 581:	239880        	sext	a9, a8, 15
 584:	080782        	l8ui	a8, a7, 8
 587:	418380        	srli	a8, a8, 3
 58a:	748080        	extui	a8, a8, 0, 8
 58d:	238880        	sext	a8, a8, 15
 590:	208980        	or	a8, a9, a8
 593:	238880        	sext	a8, a8, 15
 596:	f48080        	extui	a8, a8, 0, 16
 599:	082d      	mov.n	a2, a8
 59b:	f01d      	retw.n
 59d:	000000        	ill

000005a0 <main>:
 5a0:	008136        	entry	a1, 64
 5a3:	017d      	mov.n	a7, a1
 5a5:	4729      	s32i.n	a2, a7, 16
 5a7:	fea681        	l32r	a8, 40 <_text_start+0x40>
 5aa:	4798      	l32i.n	a9, a7, 16
 5ac:	0899      	s32i.n	a9, a8, 0
 5ae:	fea481        	l32r	a8, 40 <_text_start+0x40>
 5b1:	0888      	l32i.n	a8, a8, 0
 5b3:	3888      	l32i.n	a8, a8, 12
 5b5:	0789      	s32i.n	a8, a7, 0
 5b7:	f0a082        	movi	a8, 240
 5ba:	1789      	s32i.n	a8, a7, 4
 5bc:	18a182        	movi	a8, 0x118
 5bf:	026782        	s32i	a8, a7, 8
 5c2:	ffa7e2        	movi	a14, 0x7ff
 5c5:	63a0d2        	movi	a13, 99
 5c8:	80a0c2        	movi	a12, 128
 5cb:	80a0b2        	movi	a11, 128
 5ce:	20a770        	or	a10, a7, a7
 5d1:	ffd925        	call8	364 <draw_circle>
 5d4:	fe9b81        	l32r	a8, 40 <_text_start+0x40>
 5d7:	0888      	l32i.n	a8, a8, 0
 5d9:	4888      	l32i.n	a8, a8, 16
 5db:	0008e0        	callx8	a8
 5de:	483c      	movi.n	a8, 52
 5e0:	082d      	mov.n	a2, a8
 5e2:	f01d      	retw.n

000005e4 <__fixdfsi>:
 5e4:	002136        	entry	a1, 16
 5e7:	fe8661        	l32r	a6, 0 <_text_start>
 5ea:	264367        	ball	a3, a6, 614 <__fixdfsi+0x30>
 5ed:	a54430        	extui	a4, a3, 20, 11
 5f0:	955360        	extui	a5, a6, 19, 10
 5f3:	c04450        	sub	a4, a4, a5
 5f6:	26c4e6        	bgei	a4, 32, 620 <__fixdfsi+0x3c>
 5f9:	2f14a6        	blti	a4, 1, 62c <__fixdfsi+0x48>
 5fc:	207360        	or	a7, a3, a6
 5ff:	404510        	ssai	21
 602:	815720        	src	a5, a7, a2
 605:	401400        	ssl	a4
 608:	915050        	srl	a5, a5
 60b:	602050        	neg	a2, a5
 60e:	b32570        	movgez	a2, a5, a7
 611:	f01d      	retw.n
 613:	434000        	min	a4, a0, a0
 616:	442011        	l32r	a1, fffd1698 <os+0xfffd0b74>
 619:	241620        	extui	a1, a2, 6, 3
 61c:	a03200        	addx4	a3, a2, a0
 61f:	465000        	ee.ldf.64.xp	f5, f4, a0, a0
 622:	540b11        	l32r	a1, fffd5650 <os+0xfffd4b2c>
 625:	b34530        	movgez	a4, a5, a3
 628:	042d      	mov.n	a2, a4
 62a:	f01d      	retw.n
 62c:	020c      	movi.n	a2, 0
 62e:	f01d      	retw.n

00000630 <sqrt>:
 630:	006136        	entry	a1, 48
 633:	02ad      	mov.n	a10, a2
 635:	03bd      	mov.n	a11, a3
 637:	0005e5        	call8	694 <__ieee754_sqrt>
 63a:	fe7241        	l32r	a4, 4 <_text_start+0x4>
 63d:	01a9      	s32i.n	a10, a1, 0
 63f:	0448      	l32i.n	a4, a4, 0
 641:	11b9      	s32i.n	a11, a1, 4
 643:	450426        	beqi	a4, -1, 68c <sqrt+0x5c>
 646:	02cd      	mov.n	a12, a2
 648:	03dd      	mov.n	a13, a3
 64a:	20a220        	or	a10, a2, a2
 64d:	20b330        	or	a11, a3, a3
 650:	fe6f81        	l32r	a8, c <_text_start+0xc>
 653:	0008e0        	callx8	a8
 656:	2afc      	bnez.n	a10, 68c <sqrt+0x5c>
 658:	fe6c41        	l32r	a4, 8 <_text_start+0x8>
 65b:	fe6b51        	l32r	a5, 8 <_text_start+0x8>
 65e:	04cd      	mov.n	a12, a4
 660:	05dd      	mov.n	a13, a5
 662:	02ad      	mov.n	a10, a2
 664:	20b330        	or	a11, a3, a3
 667:	fe6a81        	l32r	a8, 10 <_text_start+0x10>
 66a:	0008e0        	callx8	a8
 66d:	01bad6        	bgez	a10, 68c <sqrt+0x5c>
 670:	fe6981        	l32r	a8, 14 <_text_start+0x14>
 673:	0008e0        	callx8	a8
 676:	122c      	movi.n	a2, 33
 678:	0a29      	s32i.n	a2, a10, 0
 67a:	04cd      	mov.n	a12, a4
 67c:	05dd      	mov.n	a13, a5
 67e:	04ad      	mov.n	a10, a4
 680:	05bd      	mov.n	a11, a5
 682:	fe6581        	l32r	a8, 18 <_text_start+0x18>
 685:	0008e0        	callx8	a8
 688:	01a9      	s32i.n	a10, a1, 0
 68a:	11b9      	s32i.n	a11, a1, 4
 68c:	0128      	l32i.n	a2, a1, 0
 68e:	1138      	l32i.n	a3, a1, 4
 690:	f01d      	retw.n
	...

00000694 <__ieee754_sqrt>:
 694:	004136        	entry	a1, 32
 697:	fe5a41        	l32r	a4, 0 <_text_start>
 69a:	039d      	mov.n	a9, a3
 69c:	108430        	and	a8, a4, a3
 69f:	02ad      	mov.n	a10, a2
 6a1:	1f9847        	bne	a8, a4, 6c4 <__ieee754_sqrt+0x30>
 6a4:	02cd      	mov.n	a12, a2
 6a6:	20d330        	or	a13, a3, a3
 6a9:	20b330        	or	a11, a3, a3
 6ac:	fe6281        	l32r	a8, 34 <_text_start+0x34>
 6af:	0008e0        	callx8	a8
 6b2:	0acd      	mov.n	a12, a10
 6b4:	0bdd      	mov.n	a13, a11
 6b6:	02ad      	mov.n	a10, a2
 6b8:	03bd      	mov.n	a11, a3
 6ba:	fe5f81        	l32r	a8, 38 <_text_start+0x38>
 6bd:	0008e0        	callx8	a8
 6c0:	000a86        	j	6ee <__ieee754_sqrt+0x5a>
 6c3:	13e600        	wsr.ps	a0
 6c6:	2d          	.byte 0x2d
 6c7:	fe5781        	l32r	a8, 24 <_text_start+0x24>
 6ca:	108380        	and	a8, a3, a8
 6cd:	208820        	or	a8, a8, a2
 6d0:	124816        	beqz	a8, 7f8 <__ieee754_sqrt+0x164>
 6d3:	080c      	movi.n	a8, 0
 6d5:	301387        	beq	a3, a8, 709 <__ieee754_sqrt+0x75>
 6d8:	02cd      	mov.n	a12, a2
 6da:	03dd      	mov.n	a13, a3
 6dc:	03bd      	mov.n	a11, a3
 6de:	fe5781        	l32r	a8, 3c <_text_start+0x3c>
 6e1:	0008e0        	callx8	a8
 6e4:	0acd      	mov.n	a12, a10
 6e6:	0bdd      	mov.n	a13, a11
 6e8:	fe4c81        	l32r	a8, 18 <_text_start+0x18>
 6eb:	0008e0        	callx8	a8
 6ee:	0a2d      	mov.n	a2, a10
 6f0:	0b3d      	mov.n	a3, a11
 6f2:	004086        	j	7f8 <__ieee754_sqrt+0x164>
 6f5:	318430        	srai	a8, a3, 20
 6f8:	d88c      	beqz.n	a8, 709 <__ieee754_sqrt+0x75>
 6fa:	000d46        	j	733 <__ieee754_sqrt+0x9f>
 6fd:	419ba0        	srli	a9, a10, 11
 700:	ebc222        	addi	a2, a2, -21
 703:	01aab0        	slli	a10, a10, 21
 706:	000046        	j	70b <__ieee754_sqrt+0x77>
 709:	020c      	movi.n	a2, 0
 70b:	fee916        	beqz	a9, 6fd <__ieee754_sqrt+0x69>
 70e:	fe4631        	l32r	a3, 28 <_text_start+0x28>
 711:	000106        	j	719 <__ieee754_sqrt+0x85>
 714:	1199f0        	slli	a9, a9, 1
 717:	881b      	addi.n	a8, a8, 1
 719:	f70937        	bnone	a9, a3, 714 <__ieee754_sqrt+0x80>
 71c:	603080        	neg	a3, a8
 71f:	400300        	ssr	a3
 722:	9130a0        	srl	a3, a10
 725:	480b      	addi.n	a4, a8, -1
 727:	401800        	ssl	a8
 72a:	a1aa00        	sll	a10, a10
 72d:	209390        	or	a9, a3, a9
 730:	c08240        	sub	a8, a2, a4
 733:	01ac22        	movi	a2, 0xfffffc01
 736:	808820        	add	a8, a8, a2
 739:	fe3c21        	l32r	a2, 2c <_text_start+0x2c>
 73c:	109920        	and	a9, a9, a2
 73f:	fe3a21        	l32r	a2, 28 <_text_start+0x28>
 742:	209920        	or	a9, a9, a2
 745:	0b6807        	bbci	a8, 0, 754 <__ieee754_sqrt+0xc0>
 748:	052fa0        	extui	a2, a10, 31, 1
 74b:	1199f0        	slli	a9, a9, 1
 74e:	809920        	add	a9, a9, a2
 751:	11aaf0        	slli	a10, a10, 1
 754:	1199f0        	slli	a9, a9, 1
 757:	21b180        	srai	a11, a8, 1
 75a:	058fa0        	extui	a8, a10, 31, 1
 75d:	898a      	add.n	a8, a9, a8
 75f:	6f1c      	movi.n	a15, 22
 761:	030c      	movi.n	a3, 0
 763:	fe2e91        	l32r	a9, 1c <_text_start+0x1c>
 766:	11aaf0        	slli	a10, a10, 1
 769:	032d      	mov.n	a2, a3
 76b:	0fcd      	mov.n	a12, a15
 76d:	1b8c76        	loop	a12, 78c <__ieee754_sqrt+0xf8>
 770:	d29a      	add.n	a13, a2, a9
 772:	0628d7        	blt	a8, a13, 77c <__ieee754_sqrt+0xe8>
 775:	2d9a      	add.n	a2, a13, a9
 777:	c088d0        	sub	a8, a8, a13
 77a:	339a      	add.n	a3, a3, a9
 77c:	054fa0        	extui	a4, a10, 31, 1
 77f:	1188f0        	slli	a8, a8, 1
 782:	848a      	add.n	a8, a4, a8
 784:	11aaf0        	slli	a10, a10, 1
 787:	419190        	srli	a9, a9, 1
 78a:	ff0b      	addi.n	a15, a15, -1
 78c:	fe25c1        	l32r	a12, 20 <_text_start+0x20>
 78f:	090c      	movi.n	a9, 0
 791:	0e2c      	movi.n	a14, 32
 793:	308e76        	loop	a14, 7c7 <__ieee754_sqrt+0x133>
 796:	dcfa      	add.n	a13, a12, a15
 798:	c04820        	sub	a4, a8, a2
 79b:	042287        	blt	a2, a8, 7a3 <__ieee754_sqrt+0x10f>
 79e:	74dc      	bnez.n	a4, 7b9 <__ieee754_sqrt+0x125>
 7a0:	153ad7        	bltu	a10, a13, 7b9 <__ieee754_sqrt+0x125>
 7a3:	fdca      	add.n	a15, a13, a12
 7a5:	004dd6        	bgez	a13, 7ad <__ieee754_sqrt+0x119>
 7a8:	001f96        	bltz	a15, 7ad <__ieee754_sqrt+0x119>
 7ab:	221b      	addi.n	a2, a2, 1
 7ad:	048d      	mov.n	a8, a4
 7af:	01bad7        	bgeu	a10, a13, 7b4 <__ieee754_sqrt+0x120>
 7b2:	840b      	addi.n	a8, a4, -1
 7b4:	c0aad0        	sub	a10, a10, a13
 7b7:	99ca      	add.n	a9, a9, a12
 7b9:	054fa0        	extui	a4, a10, 31, 1
 7bc:	1188f0        	slli	a8, a8, 1
 7bf:	848a      	add.n	a8, a4, a8
 7c1:	11aaf0        	slli	a10, a10, 1
 7c4:	41c1c0        	srli	a12, a12, 1
 7c7:	2088a0        	or	a8, a8, a10
 7ca:	f88c      	beqz.n	a8, 7dd <__ieee754_sqrt+0x149>
 7cc:	060966        	bnei	a9, -1, 7d6 <__ieee754_sqrt+0x142>
 7cf:	331b      	addi.n	a3, a3, 1
 7d1:	090c      	movi.n	a9, 0
 7d3:	000186        	j	7dd <__ieee754_sqrt+0x149>
 7d6:	991b      	addi.n	a9, a9, 1
 7d8:	e27c      	movi.n	a2, -2
 7da:	109920        	and	a9, a9, a2
 7dd:	fe1421        	l32r	a2, 30 <_text_start+0x30>
 7e0:	21a130        	srai	a10, a3, 1
 7e3:	aa2a      	add.n	a10, a10, a2
 7e5:	419190        	srli	a9, a9, 1
 7e8:	056307        	bbci	a3, 0, 7f1 <__ieee754_sqrt+0x15d>
 7eb:	fe0d21        	l32r	a2, 20 <_text_start+0x20>
 7ee:	209920        	or	a9, a9, a2
 7f1:	018bc0        	slli	a8, a11, 20
 7f4:	38aa      	add.n	a3, a8, a10
 7f6:	092d      	mov.n	a2, a9
 7f8:	f01d      	retw.n
	...

000007fc <draw_sprite>:
 7fc:	00c136        	entry	a1, 96
 7ff:	017d      	mov.n	a7, a1
 801:	c729      	s32i.n	a2, a7, 48
 803:	d739      	s32i.n	a3, a7, 52
 805:	e749      	s32i.n	a4, a7, 56
 807:	f759      	s32i.n	a5, a7, 60
 809:	c788      	l32i.n	a8, a7, 48
 80b:	0ca816        	beqz	a8, 8d9 <draw_sprite+0xdd>
 80e:	d788      	l32i.n	a8, a7, 52
 810:	0c5816        	beqz	a8, 8d9 <draw_sprite+0xdd>
 813:	c788      	l32i.n	a8, a7, 48
 815:	0888      	l32i.n	a8, a8, 0
 817:	0be816        	beqz	a8, 8d9 <draw_sprite+0xdd>
 81a:	d788      	l32i.n	a8, a7, 52
 81c:	0888      	l32i.n	a8, a8, 0
 81e:	0b7816        	beqz	a8, 8d9 <draw_sprite+0xdd>
 821:	e798      	l32i.n	a9, a7, 56
 823:	080c      	movi.n	a8, 0
 825:	538980        	max	a8, a9, a8
 828:	4789      	s32i.n	a8, a7, 16
 82a:	f798      	l32i.n	a9, a7, 60
 82c:	080c      	movi.n	a8, 0
 82e:	538980        	max	a8, a9, a8
 831:	5789      	s32i.n	a8, a7, 20
 833:	d788      	l32i.n	a8, a7, 52
 835:	1888      	l32i.n	a8, a8, 4
 837:	e798      	l32i.n	a9, a7, 56
 839:	898a      	add.n	a8, a9, a8
 83b:	0789      	s32i.n	a8, a7, 0
 83d:	d788      	l32i.n	a8, a7, 52
 83f:	2888      	l32i.n	a8, a8, 8
 841:	f798      	l32i.n	a9, a7, 60
 843:	898a      	add.n	a8, a9, a8
 845:	1789      	s32i.n	a8, a7, 4
 847:	c788      	l32i.n	a8, a7, 48
 849:	1898      	l32i.n	a9, a8, 4
 84b:	0788      	l32i.n	a8, a7, 0
 84d:	05a987        	bge	a9, a8, 856 <draw_sprite+0x5a>
 850:	c788      	l32i.n	a8, a7, 48
 852:	1888      	l32i.n	a8, a8, 4
 854:	0789      	s32i.n	a8, a7, 0
 856:	c788      	l32i.n	a8, a7, 48
 858:	2898      	l32i.n	a9, a8, 8
 85a:	1788      	l32i.n	a8, a7, 4
 85c:	05a987        	bge	a9, a8, 865 <draw_sprite+0x69>
 85f:	c788      	l32i.n	a8, a7, 48
 861:	2888      	l32i.n	a8, a8, 8
 863:	1789      	s32i.n	a8, a7, 4
 865:	5788      	l32i.n	a8, a7, 20
 867:	2789      	s32i.n	a8, a7, 8
 869:	001886        	j	8cf <draw_sprite+0xd3>
 86c:	4788      	l32i.n	a8, a7, 16
 86e:	3789      	s32i.n	a8, a7, 12
 870:	001386        	j	8c2 <draw_sprite+0xc6>
 873:	379800        	ee.stf.64.xp	f9, f3, a0, a8
 876:	e788      	l32i.n	a8, a7, 56
 878:	c08980        	sub	a8, a9, a8
 87b:	6789      	s32i.n	a8, a7, 24
 87d:	2798      	l32i.n	a9, a7, 8
 87f:	f788      	l32i.n	a8, a7, 60
 881:	c08980        	sub	a8, a9, a8
 884:	7789      	s32i.n	a8, a7, 28
 886:	d788      	l32i.n	a8, a7, 52
 888:	0898      	l32i.n	a9, a8, 0
 88a:	d788      	l32i.n	a8, a7, 52
 88c:	18a8      	l32i.n	a10, a8, 4
 88e:	7788      	l32i.n	a8, a7, 28
 890:	82aa80        	mull	a10, a10, a8
 893:	6788      	l32i.n	a8, a7, 24
 895:	8a8a      	add.n	a8, a10, a8
 897:	888a      	add.n	a8, a8, a8
 899:	898a      	add.n	a8, a9, a8
 89b:	001882        	l16ui	a8, a8, 0
 89e:	105782        	s16i	a8, a7, 32
 8a1:	c788      	l32i.n	a8, a7, 48
 8a3:	0898      	l32i.n	a9, a8, 0
 8a5:	c788      	l32i.n	a8, a7, 48
 8a7:	18a8      	l32i.n	a10, a8, 4
 8a9:	2788      	l32i.n	a8, a7, 8
 8ab:	82aa80        	mull	a10, a10, a8
 8ae:	3788      	l32i.n	a8, a7, 12
 8b0:	8a8a      	add.n	a8, a10, a8
 8b2:	888a      	add.n	a8, a8, a8
 8b4:	898a      	add.n	a8, a9, a8
 8b6:	101792        	l16ui	a9, a7, 32
 8b9:	005892        	s16i	a9, a8, 0
 8bc:	3788      	l32i.n	a8, a7, 12
 8be:	881b      	addi.n	a8, a8, 1
 8c0:	3789      	s32i.n	a8, a7, 12
 8c2:	3798      	l32i.n	a9, a7, 12
 8c4:	0788      	l32i.n	a8, a7, 0
 8c6:	aa2987        	blt	a9, a8, 874 <draw_sprite+0x78>
 8c9:	2788      	l32i.n	a8, a7, 8
 8cb:	881b      	addi.n	a8, a8, 1
 8cd:	2789      	s32i.n	a8, a7, 8
 8cf:	2798      	l32i.n	a9, a7, 8
 8d1:	1788      	l32i.n	a8, a7, 4
 8d3:	952987        	blt	a9, a8, 86c <draw_sprite+0x70>
 8d6:	000046        	j	8db <draw_sprite+0xdf>
 8d9:	f03d      	nop.n
 8db:	f01d      	retw.n
 8dd:	000000        	ill

000008e0 <rotate_sprite_90>:
 8e0:	00a136        	entry	a1, 80
 8e3:	017d      	mov.n	a7, a1
 8e5:	8729      	s32i.n	a2, a7, 32
 8e7:	8788      	l32i.n	a8, a7, 32
 8e9:	48cc      	bnez.n	a8, 8f1 <rotate_sprite_90+0x11>
 8eb:	080c      	movi.n	a8, 0
 8ed:	002486        	j	983 <rotate_sprite_90+0xa3>
 8f0:	878800        	ee.stf.64.xp	f8, f8, a0, a8
 8f3:	2898      	l32i.n	a9, a8, 8
 8f5:	8788      	l32i.n	a8, a7, 32
 8f7:	1888      	l32i.n	a8, a8, 4
 8f9:	08bd      	mov.n	a11, a8
 8fb:	09ad      	mov.n	a10, a9
 8fd:	ff7465        	call8	44 <create_canvas>
 900:	27a9      	s32i.n	a10, a7, 8
 902:	2788      	l32i.n	a8, a7, 8
 904:	48cc      	bnez.n	a8, 90c <rotate_sprite_90+0x2c>
 906:	080c      	movi.n	a8, 0
 908:	001dc6        	j	983 <rotate_sprite_90+0xa3>
 90b:	080c00        	lsx	f0, a12, a0
 90e:	0789      	s32i.n	a8, a7, 0
 910:	001906        	j	978 <rotate_sprite_90+0x98>
 913:	080c00        	lsx	f0, a12, a0
 916:	1789      	s32i.n	a8, a7, 4
 918:	001346        	j	969 <rotate_sprite_90+0x89>
 91b:	878800        	ee.stf.64.xp	f8, f8, a0, a8
 91e:	0898      	l32i.n	a9, a8, 0
 920:	8788      	l32i.n	a8, a7, 32
 922:	18a8      	l32i.n	a10, a8, 4
 924:	0788      	l32i.n	a8, a7, 0
 926:	82aa80        	mull	a10, a10, a8
 929:	1788      	l32i.n	a8, a7, 4
 92b:	8a8a      	add.n	a8, a10, a8
 92d:	888a      	add.n	a8, a8, a8
 92f:	898a      	add.n	a8, a9, a8
 931:	001882        	l16ui	a8, a8, 0
 934:	065782        	s16i	a8, a7, 12
 937:	8788      	l32i.n	a8, a7, 32
 939:	2888      	l32i.n	a8, a8, 8
 93b:	980b      	addi.n	a9, a8, -1
 93d:	0788      	l32i.n	a8, a7, 0
 93f:	c08980        	sub	a8, a9, a8
 942:	4789      	s32i.n	a8, a7, 16
 944:	1788      	l32i.n	a8, a7, 4
 946:	5789      	s32i.n	a8, a7, 20
 948:	2788      	l32i.n	a8, a7, 8
 94a:	0898      	l32i.n	a9, a8, 0
 94c:	2788      	l32i.n	a8, a7, 8
 94e:	18a8      	l32i.n	a10, a8, 4
 950:	5788      	l32i.n	a8, a7, 20
 952:	82aa80        	mull	a10, a10, a8
 955:	4788      	l32i.n	a8, a7, 16
 957:	8a8a      	add.n	a8, a10, a8
 959:	888a      	add.n	a8, a8, a8
 95b:	898a      	add.n	a8, a9, a8
 95d:	061792        	l16ui	a9, a7, 12
 960:	005892        	s16i	a9, a8, 0
 963:	1788      	l32i.n	a8, a7, 4
 965:	881b      	addi.n	a8, a8, 1
 967:	1789      	s32i.n	a8, a7, 4
 969:	8788      	l32i.n	a8, a7, 32
 96b:	1888      	l32i.n	a8, a8, 4
 96d:	1798      	l32i.n	a9, a7, 4
 96f:	a92987        	blt	a9, a8, 91c <rotate_sprite_90+0x3c>
 972:	0788      	l32i.n	a8, a7, 0
 974:	881b      	addi.n	a8, a8, 1
 976:	0789      	s32i.n	a8, a7, 0
 978:	8788      	l32i.n	a8, a7, 32
 97a:	2888      	l32i.n	a8, a8, 8
 97c:	0798      	l32i.n	a9, a7, 0
 97e:	922987        	blt	a9, a8, 914 <rotate_sprite_90+0x34>
 981:	2788      	l32i.n	a8, a7, 8
 983:	082d      	mov.n	a2, a8
 985:	f01d      	retw.n
	...

00000988 <rotate_sprite_180>:
 988:	00a136        	entry	a1, 80
 98b:	017d      	mov.n	a7, a1
 98d:	8729      	s32i.n	a2, a7, 32
 98f:	8788      	l32i.n	a8, a7, 32
 991:	48cc      	bnez.n	a8, 999 <rotate_sprite_180+0x11>
 993:	080c      	movi.n	a8, 0
 995:	002606        	j	a31 <rotate_sprite_180+0xa9>
 998:	878800        	ee.stf.64.xp	f8, f8, a0, a8
 99b:	1898      	l32i.n	a9, a8, 4
 99d:	8788      	l32i.n	a8, a7, 32
 99f:	2888      	l32i.n	a8, a8, 8
 9a1:	08bd      	mov.n	a11, a8
 9a3:	09ad      	mov.n	a10, a9
 9a5:	ff69e5        	call8	44 <create_canvas>
 9a8:	27a9      	s32i.n	a10, a7, 8
 9aa:	2788      	l32i.n	a8, a7, 8
 9ac:	38cc      	bnez.n	a8, 9b3 <rotate_sprite_180+0x2b>
 9ae:	080c      	movi.n	a8, 0
 9b0:	001f46        	j	a31 <rotate_sprite_180+0xa9>
 9b3:	080c      	movi.n	a8, 0
 9b5:	0789      	s32i.n	a8, a7, 0
 9b7:	001ac6        	j	a26 <rotate_sprite_180+0x9e>
 9ba:	080c      	movi.n	a8, 0
 9bc:	1789      	s32i.n	a8, a7, 4
 9be:	001546        	j	a17 <rotate_sprite_180+0x8f>
 9c1:	8788      	l32i.n	a8, a7, 32
 9c3:	0898      	l32i.n	a9, a8, 0
 9c5:	8788      	l32i.n	a8, a7, 32
 9c7:	18a8      	l32i.n	a10, a8, 4
 9c9:	0788      	l32i.n	a8, a7, 0
 9cb:	82aa80        	mull	a10, a10, a8
 9ce:	1788      	l32i.n	a8, a7, 4
 9d0:	8a8a      	add.n	a8, a10, a8
 9d2:	888a      	add.n	a8, a8, a8
 9d4:	898a      	add.n	a8, a9, a8
 9d6:	001882        	l16ui	a8, a8, 0
 9d9:	065782        	s16i	a8, a7, 12
 9dc:	8788      	l32i.n	a8, a7, 32
 9de:	1888      	l32i.n	a8, a8, 4
 9e0:	980b      	addi.n	a9, a8, -1
 9e2:	1788      	l32i.n	a8, a7, 4
 9e4:	c08980        	sub	a8, a9, a8
 9e7:	4789      	s32i.n	a8, a7, 16
 9e9:	8788      	l32i.n	a8, a7, 32
 9eb:	2888      	l32i.n	a8, a8, 8
 9ed:	980b      	addi.n	a9, a8, -1
 9ef:	0788      	l32i.n	a8, a7, 0
 9f1:	c08980        	sub	a8, a9, a8
 9f4:	5789      	s32i.n	a8, a7, 20
 9f6:	2788      	l32i.n	a8, a7, 8
 9f8:	0898      	l32i.n	a9, a8, 0
 9fa:	2788      	l32i.n	a8, a7, 8
 9fc:	18a8      	l32i.n	a10, a8, 4
 9fe:	5788      	l32i.n	a8, a7, 20
 a00:	82aa80        	mull	a10, a10, a8
 a03:	4788      	l32i.n	a8, a7, 16
 a05:	8a8a      	add.n	a8, a10, a8
 a07:	888a      	add.n	a8, a8, a8
 a09:	898a      	add.n	a8, a9, a8
 a0b:	061792        	l16ui	a9, a7, 12
 a0e:	005892        	s16i	a9, a8, 0
 a11:	1788      	l32i.n	a8, a7, 4
 a13:	881b      	addi.n	a8, a8, 1
 a15:	1789      	s32i.n	a8, a7, 4
 a17:	8788      	l32i.n	a8, a7, 32
 a19:	1888      	l32i.n	a8, a8, 4
 a1b:	1798      	l32i.n	a9, a7, 4
 a1d:	a02987        	blt	a9, a8, 9c1 <rotate_sprite_180+0x39>
 a20:	0788      	l32i.n	a8, a7, 0
 a22:	881b      	addi.n	a8, a8, 1
 a24:	0789      	s32i.n	a8, a7, 0
 a26:	8788      	l32i.n	a8, a7, 32
 a28:	2888      	l32i.n	a8, a8, 8
 a2a:	0798      	l32i.n	a9, a7, 0
 a2c:	8a2987        	blt	a9, a8, 9ba <rotate_sprite_180+0x32>
 a2f:	2788      	l32i.n	a8, a7, 8
 a31:	082d      	mov.n	a2, a8
 a33:	f01d      	retw.n
 a35:	000000        	ill

00000a38 <rotate_sprite_270>:
 a38:	00a136        	entry	a1, 80
 a3b:	017d      	mov.n	a7, a1
 a3d:	8729      	s32i.n	a2, a7, 32
 a3f:	8788      	l32i.n	a8, a7, 32
 a41:	48cc      	bnez.n	a8, a49 <rotate_sprite_270+0x11>
 a43:	080c      	movi.n	a8, 0
 a45:	002486        	j	adb <rotate_sprite_270+0xa3>
 a48:	878800        	ee.stf.64.xp	f8, f8, a0, a8
 a4b:	2898      	l32i.n	a9, a8, 8
 a4d:	8788      	l32i.n	a8, a7, 32
 a4f:	1888      	l32i.n	a8, a8, 4
 a51:	08bd      	mov.n	a11, a8
 a53:	09ad      	mov.n	a10, a9
 a55:	ff5ee5        	call8	44 <create_canvas>
 a58:	27a9      	s32i.n	a10, a7, 8
 a5a:	2788      	l32i.n	a8, a7, 8
 a5c:	48cc      	bnez.n	a8, a64 <rotate_sprite_270+0x2c>
 a5e:	080c      	movi.n	a8, 0
 a60:	001dc6        	j	adb <rotate_sprite_270+0xa3>
 a63:	080c00        	lsx	f0, a12, a0
 a66:	0789      	s32i.n	a8, a7, 0
 a68:	001906        	j	ad0 <rotate_sprite_270+0x98>
 a6b:	080c00        	lsx	f0, a12, a0
 a6e:	1789      	s32i.n	a8, a7, 4
 a70:	001346        	j	ac1 <rotate_sprite_270+0x89>
 a73:	878800        	ee.stf.64.xp	f8, f8, a0, a8
 a76:	0898      	l32i.n	a9, a8, 0
 a78:	8788      	l32i.n	a8, a7, 32
 a7a:	18a8      	l32i.n	a10, a8, 4
 a7c:	0788      	l32i.n	a8, a7, 0
 a7e:	82aa80        	mull	a10, a10, a8
 a81:	1788      	l32i.n	a8, a7, 4
 a83:	8a8a      	add.n	a8, a10, a8
 a85:	888a      	add.n	a8, a8, a8
 a87:	898a      	add.n	a8, a9, a8
 a89:	001882        	l16ui	a8, a8, 0
 a8c:	065782        	s16i	a8, a7, 12
 a8f:	0788      	l32i.n	a8, a7, 0
 a91:	4789      	s32i.n	a8, a7, 16
 a93:	8788      	l32i.n	a8, a7, 32
 a95:	1888      	l32i.n	a8, a8, 4
 a97:	980b      	addi.n	a9, a8, -1
 a99:	1788      	l32i.n	a8, a7, 4
 a9b:	c08980        	sub	a8, a9, a8
 a9e:	5789      	s32i.n	a8, a7, 20
 aa0:	2788      	l32i.n	a8, a7, 8
 aa2:	0898      	l32i.n	a9, a8, 0
 aa4:	2788      	l32i.n	a8, a7, 8
 aa6:	18a8      	l32i.n	a10, a8, 4
 aa8:	5788      	l32i.n	a8, a7, 20
 aaa:	82aa80        	mull	a10, a10, a8
 aad:	4788      	l32i.n	a8, a7, 16
 aaf:	8a8a      	add.n	a8, a10, a8
 ab1:	888a      	add.n	a8, a8, a8
 ab3:	898a      	add.n	a8, a9, a8
 ab5:	061792        	l16ui	a9, a7, 12
 ab8:	005892        	s16i	a9, a8, 0
 abb:	1788      	l32i.n	a8, a7, 4
 abd:	881b      	addi.n	a8, a8, 1
 abf:	1789      	s32i.n	a8, a7, 4
 ac1:	8788      	l32i.n	a8, a7, 32
 ac3:	1888      	l32i.n	a8, a8, 4
 ac5:	1798      	l32i.n	a9, a7, 4
 ac7:	a92987        	blt	a9, a8, a74 <rotate_sprite_270+0x3c>
 aca:	0788      	l32i.n	a8, a7, 0
 acc:	881b      	addi.n	a8, a8, 1
 ace:	0789      	s32i.n	a8, a7, 0
 ad0:	8788      	l32i.n	a8, a7, 32
 ad2:	2888      	l32i.n	a8, a8, 8
 ad4:	0798      	l32i.n	a9, a7, 0
 ad6:	922987        	blt	a9, a8, a6c <rotate_sprite_270+0x34>
 ad9:	2788      	l32i.n	a8, a7, 8
 adb:	082d      	mov.n	a2, a8
 add:	f01d      	retw.n
	...

00000ae0 <__floatunsidf>:
 ae0:	002136        	entry	a1, 16
 ae3:	22bc      	beqz.n	a2, b19 <__floatsidf+0x2d>
 ae5:	070c      	movi.n	a7, 0
 ae7:	000306        	j	af7 <__floatsidf+0xb>
	...

00000aec <__floatsidf>:
 aec:	002136        	entry	a1, 16
 aef:	62ac      	beqz.n	a2, b19 <__floatsidf+0x2d>
 af1:	057f20        	extui	a7, a2, 31, 1
 af4:	602120        	abs	a2, a2
 af7:	40f240        	nsau	a4, a2
 afa:	401400        	ssl	a4
 afd:	a15200        	sll	a5, a2
 b00:	413b50        	srli	a3, a5, 11
 b03:	0125b0        	slli	a2, a5, 21
 b06:	1da452        	movi	a5, 0x41d
 b09:	c05540        	sub	a5, a5, a4
 b0c:	0155c0        	slli	a5, a5, 20
 b0f:	335a      	add.n	a3, a3, a5
 b11:	017710        	slli	a7, a7, 31
 b14:	203370        	or	a3, a3, a7
 b17:	f01d      	retw.n
 b19:	030c      	movi.n	a3, 0
 b1b:	f01d      	retw.n
